target datalayout = "e-m:e-p270:32:32-p271:32:32-p272:64:64-i64:64-i128:128-f80:128-n8:16:32:64-S128"
target triple = "x86_64-pc-linux-gnu"

%struct.Hacl_Hash_Blake2b_index_s = type { i8, i8, i8 }
%struct.Hacl_Hash_Blake2b_Simd256_block_state_t_s = type { i8, i8, i8, %struct.K____Lib_IntVector_Intrinsics_vec256___Lib_IntVector_Intrinsics_vec256__s }
%struct.K____Lib_IntVector_Intrinsics_vec256___Lib_IntVector_Intrinsics_vec256__s = type { ptr, ptr }
%struct.Hacl_Hash_Blake2b_Simd256_state_t_s = type { %struct.Hacl_Hash_Blake2b_Simd256_block_state_t_s, ptr, i64 }

; Function Attrs: nounwind uwtable
define hidden ptr @python_hashlib_Hacl_Hash_Blake2b_Simd256_copy(ptr noundef %0) #5 {
  %2 = alloca ptr, align 8
  %3 = alloca %struct.Hacl_Hash_Blake2b_Simd256_state_t_s, align 8
  %4 = alloca %struct.Hacl_Hash_Blake2b_Simd256_block_state_t_s, align 8
  %5 = alloca ptr, align 8
  %6 = alloca i64, align 8
  %7 = alloca i8, align 1
  %8 = alloca i8, align 1
  %9 = alloca i8, align 1
  %10 = alloca %struct.Hacl_Hash_Blake2b_index_s, align 1
  %11 = alloca ptr, align 8
  %12 = alloca ptr, align 8
  %13 = alloca ptr, align 8
  %14 = alloca %struct.Hacl_Hash_Blake2b_Simd256_block_state_t_s, align 8
  %15 = alloca ptr, align 8
  %16 = alloca ptr, align 8
  %17 = alloca %struct.Hacl_Hash_Blake2b_Simd256_state_t_s, align 8
  %18 = alloca ptr, align 8
  store ptr %0, ptr %2, align 8, !tbaa !59
  call void @llvm.lifetime.start.p0(i64 40, ptr %3) #14
  %19 = load ptr, ptr %2, align 8, !tbaa !59
  call void @llvm.memcpy.p0.p0.i64(ptr align 8 %3, ptr align 8 %19, i64 40, i1 false), !tbaa.struct !61
  call void @llvm.lifetime.start.p0(i64 24, ptr %4) #14
  %20 = getelementptr inbounds nuw %struct.Hacl_Hash_Blake2b_Simd256_state_t_s, ptr %3, i32 0, i32 0
  call void @llvm.memcpy.p0.p0.i64(ptr align 8 %4, ptr align 8 %20, i64 24, i1 false), !tbaa.struct !55
  call void @llvm.lifetime.start.p0(i64 8, ptr %5) #14
  %21 = getelementptr inbounds nuw %struct.Hacl_Hash_Blake2b_Simd256_state_t_s, ptr %3, i32 0, i32 1
  %22 = load ptr, ptr %21, align 8, !tbaa !56
  store ptr %22, ptr %5, align 8, !tbaa !26
  call void @llvm.lifetime.start.p0(i64 8, ptr %6) #14
  %23 = getelementptr inbounds nuw %struct.Hacl_Hash_Blake2b_Simd256_state_t_s, ptr %3, i32 0, i32 2
  %24 = load i64, ptr %23, align 8, !tbaa !58
  store i64 %24, ptr %6, align 8, !tbaa !22
  call void @llvm.lifetime.start.p0(i64 1, ptr %7) #14
  %25 = getelementptr inbounds nuw %struct.Hacl_Hash_Blake2b_Simd256_block_state_t_s, ptr %4, i32 0, i32 2
  %26 = load i8, ptr %25, align 2, !tbaa !52, !range !36, !noundef !37
  %27 = trunc i8 %26 to i1
  %28 = zext i1 %27 to i8
  store i8 %28, ptr %7, align 1, !tbaa !34
  call void @llvm.lifetime.start.p0(i64 1, ptr %8) #14
  %29 = getelementptr inbounds nuw %struct.Hacl_Hash_Blake2b_Simd256_block_state_t_s, ptr %4, i32 0, i32 1
  %30 = load i8, ptr %29, align 1, !tbaa !51
  store i8 %30, ptr %8, align 1, !tbaa !23
  call void @llvm.lifetime.start.p0(i64 1, ptr %9) #14
  %31 = getelementptr inbounds nuw %struct.Hacl_Hash_Blake2b_Simd256_block_state_t_s, ptr %4, i32 0, i32 0
  %32 = load i8, ptr %31, align 8, !tbaa !48
  store i8 %32, ptr %9, align 1, !tbaa !23
  call void @llvm.lifetime.start.p0(i64 3, ptr %10) #14
  %33 = getelementptr inbounds nuw %struct.Hacl_Hash_Blake2b_index_s, ptr %10, i32 0, i32 0
  %34 = load i8, ptr %9, align 1, !tbaa !23
  store i8 %34, ptr %33, align 1, !tbaa !41
  %35 = getelementptr inbounds nuw %struct.Hacl_Hash_Blake2b_index_s, ptr %10, i32 0, i32 1
  %36 = load i8, ptr %8, align 1, !tbaa !23
  store i8 %36, ptr %35, align 1, !tbaa !43
  %37 = getelementptr inbounds nuw %struct.Hacl_Hash_Blake2b_index_s, ptr %10, i32 0, i32 2
  %38 = load i8, ptr %7, align 1, !tbaa !34, !range !36, !noundef !37
  %39 = trunc i8 %38 to i1
  %40 = zext i1 %39 to i8
  store i8 %40, ptr %37, align 1, !tbaa !44
  call void @llvm.lifetime.start.p0(i64 8, ptr %11) #14
  %41 = call noalias ptr @calloc(i64 noundef 128, i64 noundef 1) #16
  store ptr %41, ptr %11, align 8, !tbaa !26
  %42 = load ptr, ptr %11, align 8, !tbaa !26
  %43 = load ptr, ptr %5, align 8, !tbaa !26
  call void @llvm.memcpy.p0.p0.i64(ptr align 1 %42, ptr align 1 %43, i64 128, i1 false)
  call void @llvm.lifetime.start.p0(i64 8, ptr %12) #14
  %44 = call noalias align 32 ptr @aligned_alloc(i64 noundef 32, i64 noundef 128) #15
  store ptr %44, ptr %12, align 8, !tbaa !3
  %45 = load ptr, ptr %12, align 8, !tbaa !3
  call void @llvm.memset.p0.i64(ptr align 32 %45, i8 0, i64 128, i1 false)
  call void @llvm.lifetime.start.p0(i64 8, ptr %13) #14
  %46 = call noalias align 32 ptr @aligned_alloc(i64 noundef 32, i64 noundef 128) #15
  store ptr %46, ptr %13, align 8, !tbaa !3
  %47 = load ptr, ptr %13, align 8, !tbaa !3
  call void @llvm.memset.p0.i64(ptr align 32 %47, i8 0, i64 128, i1 false)
  call void @llvm.lifetime.start.p0(i64 24, ptr %14) #14
  %48 = getelementptr inbounds nuw %struct.Hacl_Hash_Blake2b_Simd256_block_state_t_s, ptr %14, i32 0, i32 0
  %49 = getelementptr inbounds nuw %struct.Hacl_Hash_Blake2b_index_s, ptr %10, i32 0, i32 0
  %50 = load i8, ptr %49, align 1, !tbaa !41
  store i8 %50, ptr %48, align 8, !tbaa !48
  %51 = getelementptr inbounds nuw %struct.Hacl_Hash_Blake2b_Simd256_block_state_t_s, ptr %14, i32 0, i32 1
  %52 = getelementptr inbounds nuw %struct.Hacl_Hash_Blake2b_index_s, ptr %10, i32 0, i32 1
  %53 = load i8, ptr %52, align 1, !tbaa !43
  store i8 %53, ptr %51, align 1, !tbaa !51
  %54 = getelementptr inbounds nuw %struct.Hacl_Hash_Blake2b_Simd256_block_state_t_s, ptr %14, i32 0, i32 2
  %55 = getelementptr inbounds nuw %struct.Hacl_Hash_Blake2b_index_s, ptr %10, i32 0, i32 2
  %56 = load i8, ptr %55, align 1, !tbaa !44, !range !36, !noundef !37
  %57 = trunc i8 %56 to i1
  %58 = zext i1 %57 to i8
  store i8 %58, ptr %54, align 2, !tbaa !52
  %59 = getelementptr i8, ptr %14, i64 3
  call void @llvm.memset.p0.i64(ptr align 1 %59, i8 0, i64 5, i1 false)
  %60 = getelementptr inbounds nuw %struct.Hacl_Hash_Blake2b_Simd256_block_state_t_s, ptr %14, i32 0, i32 3
  %61 = getelementptr inbounds nuw %struct.K____Lib_IntVector_Intrinsics_vec256___Lib_IntVector_Intrinsics_vec256__s, ptr %60, i32 0, i32 0
  %62 = load ptr, ptr %12, align 8, !tbaa !3
  store ptr %62, ptr %61, align 8, !tbaa !53
  %63 = getelementptr inbounds nuw %struct.K____Lib_IntVector_Intrinsics_vec256___Lib_IntVector_Intrinsics_vec256__s, ptr %60, i32 0, i32 1
  %64 = load ptr, ptr %13, align 8, !tbaa !3
  store ptr %64, ptr %63, align 8, !tbaa !54
  call void @llvm.lifetime.start.p0(i64 8, ptr %15) #14
  %65 = getelementptr inbounds nuw %struct.Hacl_Hash_Blake2b_Simd256_block_state_t_s, ptr %4, i32 0, i32 3
  %66 = getelementptr inbounds nuw %struct.K____Lib_IntVector_Intrinsics_vec256___Lib_IntVector_Intrinsics_vec256__s, ptr %65, i32 0, i32 1
  %67 = load ptr, ptr %66, align 8, !tbaa !62
  store ptr %67, ptr %15, align 8, !tbaa !3
  call void @llvm.lifetime.start.p0(i64 8, ptr %16) #14
  %68 = getelementptr inbounds nuw %struct.Hacl_Hash_Blake2b_Simd256_block_state_t_s, ptr %14, i32 0, i32 3
  %69 = getelementptr inbounds nuw %struct.K____Lib_IntVector_Intrinsics_vec256___Lib_IntVector_Intrinsics_vec256__s, ptr %68, i32 0, i32 1
  %70 = load ptr, ptr %69, align 8, !tbaa !62
  store ptr %70, ptr %16, align 8, !tbaa !3
  %71 = load ptr, ptr %16, align 8, !tbaa !3
  %72 = load ptr, ptr %15, align 8, !tbaa !3
  call void @llvm.memcpy.p0.p0.i64(ptr align 32 %71, ptr align 32 %72, i64 128, i1 false)
  call void @llvm.lifetime.start.p0(i64 40, ptr %17) #14
  %73 = getelementptr inbounds nuw %struct.Hacl_Hash_Blake2b_Simd256_state_t_s, ptr %17, i32 0, i32 0
  call void @llvm.memcpy.p0.p0.i64(ptr align 8 %73, ptr align 8 %14, i64 24, i1 false), !tbaa.struct !55
  %74 = getelementptr inbounds nuw %struct.Hacl_Hash_Blake2b_Simd256_state_t_s, ptr %17, i32 0, i32 1
  %75 = load ptr, ptr %11, align 8, !tbaa !26
  store ptr %75, ptr %74, align 8, !tbaa !56
  %76 = getelementptr inbounds nuw %struct.Hacl_Hash_Blake2b_Simd256_state_t_s, ptr %17, i32 0, i32 2
  %77 = load i64, ptr %6, align 8, !tbaa !22
  store i64 %77, ptr %76, align 8, !tbaa !58
  call void @llvm.lifetime.start.p0(i64 8, ptr %18) #14
  %78 = call noalias ptr @malloc(i64 noundef 40) #17
  store ptr %78, ptr %18, align 8, !tbaa !59
  %79 = load ptr, ptr %18, align 8, !tbaa !59
  %80 = getelementptr %struct.Hacl_Hash_Blake2b_Simd256_state_t_s, ptr %79, i64 0
  call void @llvm.memcpy.p0.p0.i64(ptr align 8 %80, ptr align 8 %17, i64 40, i1 false), !tbaa.struct !61
  %81 = load ptr, ptr %18, align 8, !tbaa !59
  call void @llvm.lifetime.end.p0(i64 8, ptr %18) #14
  call void @llvm.lifetime.end.p0(i64 40, ptr %17) #14
  call void @llvm.lifetime.end.p0(i64 8, ptr %16) #14
  call void @llvm.lifetime.end.p0(i64 8, ptr %15) #14
  call void @llvm.lifetime.end.p0(i64 24, ptr %14) #14
  call void @llvm.lifetime.end.p0(i64 8, ptr %13) #14
  call void @llvm.lifetime.end.p0(i64 8, ptr %12) #14
  call void @llvm.lifetime.end.p0(i64 8, ptr %11) #14
  call void @llvm.lifetime.end.p0(i64 3, ptr %10) #14
  call void @llvm.lifetime.end.p0(i64 1, ptr %9) #14
  call void @llvm.lifetime.end.p0(i64 1, ptr %8) #14
  call void @llvm.lifetime.end.p0(i64 1, ptr %7) #14
  call void @llvm.lifetime.end.p0(i64 8, ptr %6) #14
  call void @llvm.lifetime.end.p0(i64 8, ptr %5) #14
  call void @llvm.lifetime.end.p0(i64 24, ptr %4) #14
  call void @llvm.lifetime.end.p0(i64 40, ptr %3) #14
  ret ptr %81
}