; Function Attrs: mustprogress nofree nounwind willreturn uwtable
define hidden noalias noundef ptr @python_hashlib_Hacl_Hash_Blake2b_Simd256_copy(ptr noundef readonly captures(none) %0) local_unnamed_addr #13 {
  %.sroa.024.0.copyload = load i8, ptr %0, align 8, !tbaa !3
  %.sroa.425.0..sroa_idx = getelementptr inbounds nuw i8, ptr %0, i64 1
  %.sroa.425.0.copyload = load i8, ptr %.sroa.425.0..sroa_idx, align 1, !tbaa !3
  %.sroa.526.0..sroa_idx = getelementptr inbounds nuw i8, ptr %0, i64 2
  %.sroa.526.0.copyload = load i8, ptr %.sroa.526.0..sroa_idx, align 2, !tbaa !10
  %.sroa.728.0..sroa_idx = getelementptr inbounds nuw i8, ptr %0, i64 16
  %.sroa.728.0.copyload = load ptr, ptr %.sroa.728.0..sroa_idx, align 8, !tbaa !12
  %.sroa.829.0..sroa_idx = getelementptr inbounds nuw i8, ptr %0, i64 24
  %.sroa.829.0.copyload = load ptr, ptr %.sroa.829.0..sroa_idx, align 8, !tbaa !14
  %.sroa.9.0..sroa_idx = getelementptr inbounds nuw i8, ptr %0, i64 32
  %.sroa.9.0.copyload = load i64, ptr %.sroa.9.0..sroa_idx, align 8, !tbaa !8
  %2 = and i8 %.sroa.526.0.copyload, 1
  %3 = tail call noalias dereferenceable_or_null(128) ptr @calloc(i64 noundef 128, i64 noundef 1) #28
  tail call void @llvm.memcpy.p0.p0.i64(ptr noundef nonnull align 1 dereferenceable(128) %3, ptr noundef nonnull align 1 dereferenceable(128) %.sroa.829.0.copyload, i64 128, i1 false)
  %4 = tail call noalias align 32 dereferenceable_or_null(128) ptr @aligned_alloc(i64 noundef 32, i64 noundef 128) #27
  tail call void @llvm.memset.p0.i64(ptr noundef nonnull align 32 dereferenceable(128) %4, i8 0, i64 128, i1 false)
  %5 = tail call noalias align 32 dereferenceable_or_null(128) ptr @aligned_alloc(i64 noundef 32, i64 noundef 128) #27
  tail call void @llvm.memcpy.p0.p0.i64(ptr noundef nonnull align 32 dereferenceable(128) %5, ptr noundef nonnull align 32 dereferenceable(128) %.sroa.728.0.copyload, i64 128, i1 false)
  %6 = tail call noalias dereferenceable_or_null(40) ptr @malloc(i64 noundef 40) #29
  store i8 %.sroa.024.0.copyload, ptr %6, align 8, !tbaa !3
  %.sroa.0.sroa.4.0..sroa_idx = getelementptr inbounds nuw i8, ptr %6, i64 1
  store i8 %.sroa.425.0.copyload, ptr %.sroa.0.sroa.4.0..sroa_idx, align 1, !tbaa !3
  %.sroa.0.sroa.5.0..sroa_idx = getelementptr inbounds nuw i8, ptr %6, i64 2
  store i8 %2, ptr %.sroa.0.sroa.5.0..sroa_idx, align 2, !tbaa !10
  %.sroa.0.sroa.6.0..sroa_idx = getelementptr inbounds nuw i8, ptr %6, i64 3
  tail call void @llvm.memset.p0.i64(ptr noundef nonnull align 1 dereferenceable(5) %.sroa.0.sroa.6.0..sroa_idx, i8 0, i64 5, i1 false)
  %.sroa.0.sroa.7.0..sroa_idx = getelementptr inbounds nuw i8, ptr %6, i64 8
  store ptr %4, ptr %.sroa.0.sroa.7.0..sroa_idx, align 8, !tbaa !12
  %.sroa.0.sroa.8.0..sroa_idx = getelementptr inbounds nuw i8, ptr %6, i64 16
  store ptr %5, ptr %.sroa.0.sroa.8.0..sroa_idx, align 8, !tbaa !12
  %.sroa.4.0..sroa_idx = getelementptr inbounds nuw i8, ptr %6, i64 24
  store ptr %3, ptr %.sroa.4.0..sroa_idx, align 8, !tbaa !14
  %.sroa.5.0..sroa_idx = getelementptr inbounds nuw i8, ptr %6, i64 32
  store i64 %.sroa.9.0.copyload, ptr %.sroa.5.0..sroa_idx, align 8, !tbaa !8
  ret ptr %6
}